; Function Attrs: mustprogress uwtable
define internal fastcc noundef i32 @_ZL21integerToStringBufferPciiiP10UErrorCode(ptr noundef %0, i32 noundef %1, i32 noundef %2, i32 noundef range(i32 2, 17) %3, ptr noundef %4) unnamed_addr #1 {
  %6 = alloca [300 x i8], align 16
  %7 = load i32, ptr %4, align 4, !tbaa !13
  %8 = icmp slt i32 %7, 1
  br i1 %8, label %9, label %24

9:                                                ; preds = %5
  call void @llvm.lifetime.start.p0(i64 300, ptr nonnull %6) #26
  %10 = call i32 @T_CString_integerToString_77(ptr noundef nonnull %6, i32 noundef %2, i32 noundef %3)
  %11 = load i32, ptr %4, align 4, !tbaa !13
  %12 = icmp sgt i32 %11, 0
  br i1 %12, label %16, label %13

13:                                               ; preds = %9
  %14 = call i64 @strlen(ptr noundef nonnull dereferenceable(1) %6) #29
  %15 = trunc i64 %14 to i32
  %.not22.i = icmp eq ptr %0, null
  br i1 %.not22.i, label %_ZL20stringToStringBufferPciPKcP10UErrorCode.exit, label %.sink.split.i

16:                                               ; preds = %9
  %17 = call ptr @u_errorName_77(i32 noundef %11)
  %18 = call i64 @strlen(ptr noundef nonnull dereferenceable(1) %17) #29
  %19 = trunc i64 %18 to i32
  %.not21.i = icmp eq ptr %0, null
  br i1 %.not21.i, label %_ZL20stringToStringBufferPciPKcP10UErrorCode.exit, label %.sink.split.i

.sink.split.i:                                    ; preds = %16, %13
  %.sink25.i = phi i32 [ %15, %13 ], [ %19, %16 ]
  %.sink.i = phi ptr [ %6, %13 ], [ %17, %16 ]
  %20 = call i32 @uprv_min_77(i32 noundef %.sink25.i, i32 noundef %1)
  %21 = sext i32 %20 to i64
  %22 = call ptr @strncpy(ptr noundef nonnull %0, ptr noundef nonnull %.sink.i, i64 noundef %21) #26
  br label %_ZL20stringToStringBufferPciPKcP10UErrorCode.exit

_ZL20stringToStringBufferPciPKcP10UErrorCode.exit: ; preds = %13, %16, %.sink.split.i
  %.018.i = phi i32 [ %15, %13 ], [ %19, %16 ], [ %.sink25.i, %.sink.split.i ]
  %23 = call noundef i32 @u_terminateChars_77(ptr noundef %0, i32 noundef %1, i32 noundef %.018.i, ptr noundef nonnull %4)
  call void @llvm.lifetime.end.p0(i64 300, ptr nonnull %6) #26
  br label %24

24:                                               ; preds = %5, %_ZL20stringToStringBufferPciPKcP10UErrorCode.exit
  %.0 = phi i32 [ %23, %_ZL20stringToStringBufferPciPKcP10UErrorCode.exit ], [ 0, %5 ]
  ret i32 %.0
}